target datalayout = "e-m:e-p270:32:32-p271:32:32-p272:64:64-i64:64-i128:128-f80:128-n8:16:32:64-S128"
target triple = "x86_64-pc-linux-gnu"

%"struct.duckdb_libpgquery::PGRangeVar" = type { i32, ptr, ptr, ptr, i8, i8, ptr, i32, ptr }

; Function Attrs: mustprogress uwtable
define hidden noundef ptr @_ZN17duckdb_libpgquery12makeRangeVarEPcS0_i(ptr noundef %0, ptr noundef %1, i32 noundef %2) #0 {
  %4 = alloca ptr, align 8
  %5 = alloca ptr, align 8
  %6 = alloca i32, align 4
  %7 = alloca ptr, align 8
  store ptr %0, ptr %4, align 8, !tbaa !23
  store ptr %1, ptr %5, align 8, !tbaa !23
  store i32 %2, ptr %6, align 4, !tbaa !12
  call void @llvm.lifetime.start.p0(i64 8, ptr %7) #3
  %8 = call noundef ptr @_ZN17duckdb_libpgquery7newNodeEmNS_9PGNodeTagE(i64 noundef 64, i32 noundef 96)
  store ptr %8, ptr %7, align 8, !tbaa !39
  %9 = load ptr, ptr %7, align 8, !tbaa !39
  %10 = getelementptr inbounds nuw %"struct.duckdb_libpgquery::PGRangeVar", ptr %9, i32 0, i32 1
  store ptr null, ptr %10, align 8, !tbaa !41
  %11 = load ptr, ptr %4, align 8, !tbaa !23
  %12 = load ptr, ptr %7, align 8, !tbaa !39
  %13 = getelementptr inbounds nuw %"struct.duckdb_libpgquery::PGRangeVar", ptr %12, i32 0, i32 2
  store ptr %11, ptr %13, align 8, !tbaa !44
  %14 = load ptr, ptr %5, align 8, !tbaa !23
  %15 = load ptr, ptr %7, align 8, !tbaa !39
  %16 = getelementptr inbounds nuw %"struct.duckdb_libpgquery::PGRangeVar", ptr %15, i32 0, i32 3
  store ptr %14, ptr %16, align 8, !tbaa !45
  %17 = load ptr, ptr %7, align 8, !tbaa !39
  %18 = getelementptr inbounds nuw %"struct.duckdb_libpgquery::PGRangeVar", ptr %17, i32 0, i32 4
  store i8 1, ptr %18, align 8, !tbaa !46
  %19 = load ptr, ptr %7, align 8, !tbaa !39
  %20 = getelementptr inbounds nuw %"struct.duckdb_libpgquery::PGRangeVar", ptr %19, i32 0, i32 5
  store i8 2, ptr %20, align 1, !tbaa !47
  %21 = load ptr, ptr %7, align 8, !tbaa !39
  %22 = getelementptr inbounds nuw %"struct.duckdb_libpgquery::PGRangeVar", ptr %21, i32 0, i32 6
  store ptr null, ptr %22, align 8, !tbaa !48
  %23 = load i32, ptr %6, align 4, !tbaa !12
  %24 = load ptr, ptr %7, align 8, !tbaa !39
  %25 = getelementptr inbounds nuw %"struct.duckdb_libpgquery::PGRangeVar", ptr %24, i32 0, i32 7
  store i32 %23, ptr %25, align 8, !tbaa !49
  %26 = load ptr, ptr %7, align 8, !tbaa !39
  %27 = getelementptr inbounds nuw %"struct.duckdb_libpgquery::PGRangeVar", ptr %26, i32 0, i32 8
  store ptr null, ptr %27, align 8, !tbaa !50
  %28 = load ptr, ptr %7, align 8, !tbaa !39
  call void @llvm.lifetime.end.p0(i64 8, ptr %7) #3
  ret ptr %28
}