; Function Attrs: mustprogress uwtable
define hidden noundef ptr @_ZN17duckdb_libpgquery12makeRangeVarEPcS0_i(ptr noundef %0, ptr noundef %1, i32 noundef %2) local_unnamed_addr #0 {
  %4 = tail call noundef ptr @_ZN17duckdb_libpgquery7newNodeEmNS_9PGNodeTagE(i64 noundef 64, i32 noundef 96)
  %5 = getelementptr inbounds nuw i8, ptr %4, i64 8
  store ptr null, ptr %5, align 8, !tbaa !27
  %6 = getelementptr inbounds nuw i8, ptr %4, i64 16
  store ptr %0, ptr %6, align 8, !tbaa !31
  %7 = getelementptr inbounds nuw i8, ptr %4, i64 24
  store ptr %1, ptr %7, align 8, !tbaa !32
  %8 = getelementptr inbounds nuw i8, ptr %4, i64 32
  store i8 1, ptr %8, align 8, !tbaa !33
  %9 = getelementptr inbounds nuw i8, ptr %4, i64 33
  store i8 2, ptr %9, align 1, !tbaa !34
  %10 = getelementptr inbounds nuw i8, ptr %4, i64 40
  store ptr null, ptr %10, align 8, !tbaa !35
  %11 = getelementptr inbounds nuw i8, ptr %4, i64 48
  store i32 %2, ptr %11, align 8, !tbaa !36
  %12 = getelementptr inbounds nuw i8, ptr %4, i64 56
  store ptr null, ptr %12, align 8, !tbaa !37
  ret ptr %4
}